; Function Attrs: mustprogress ssp uwtable
define void @_ZN6open3d7utility12JsonToStringB5cxx11ERKN4Json5ValueE(ptr dead_on_unwind noalias writable sret(%"class.std::__cxx11::basic_string") align 8 %0, ptr noundef nonnull align 8 dereferenceable(40) %1) local_unnamed_addr #1 personality ptr @__gxx_personality_v0 {
  %3 = alloca %"class.Json::StreamWriterBuilder", align 8
  call void @llvm.lifetime.start.p0(i64 48, ptr nonnull %3) #29
  call void @_ZN4Json19StreamWriterBuilderC1Ev(ptr noundef nonnull align 8 dereferenceable(48) %3)
  invoke void @_ZN4Json11writeStringB5cxx11ERKNS_12StreamWriter7FactoryERKNS_5ValueE(ptr dead_on_unwind writable sret(%"class.std::__cxx11::basic_string") align 8 %0, ptr noundef nonnull align 8 dereferenceable(8) %3, ptr noundef nonnull align 8 dereferenceable(40) %1)
          to label %4 unwind label %5

4:                                                ; preds = %2
  call void @_ZN4Json19StreamWriterBuilderD1Ev(ptr noundef nonnull align 8 dereferenceable(48) %3) #29
  call void @llvm.lifetime.end.p0(i64 48, ptr nonnull %3) #29
  ret void

5:                                                ; preds = %2
  %6 = landingpad { ptr, i32 }
          cleanup
  call void @_ZN4Json19StreamWriterBuilderD1Ev(ptr noundef nonnull align 8 dereferenceable(48) %3) #29
  call void @llvm.lifetime.end.p0(i64 48, ptr nonnull %3) #29
  resume { ptr, i32 } %6
}